target datalayout = "e-m:e-p270:32:32-p271:32:32-p272:64:64-i64:64-i128:128-f80:128-n8:16:32:64-S128"
target triple = "x86_64-pc-linux-gnu"

%"class.llvm::StringRef" = type { ptr, i64 }
%"class.llvm::SmallVectorBase" = type { ptr, i32, i32 }
%"class.llvm::SMLoc" = type { ptr }
%"class.llvm::Twine" = type <{ %"union.llvm::Twine::Child", %"union.llvm::Twine::Child", i8, i8, [6 x i8] }>
%"union.llvm::Twine::Child" = type { %struct.anon }
%struct.anon = type { ptr, i64 }
%"class.llvm::LLParser" = type { ptr, %"class.llvm::LLLexer", %"class.llvm::LLLexer", ptr, ptr, ptr, %"class.llvm::SmallVector.3", %"class.llvm::DenseMap", %"class.llvm::StringMap", %"class.std::map", %"class.std::map.11", %"class.std::map.16", %"class.std::map.21", %"class.std::map.27", %"class.llvm::NumberedValues", %"class.std::map.35", %"class.std::map.40", ptr, %"class.std::map.46", %"class.std::map.46", %"class.std::map.51", %"class.std::map.57", %"class.std::map.62", %"class.std::map.67", %"class.std::vector", %"class.std::map.75", %"class.std::map.80", i8, i8, i8, %"class.std::__cxx11::basic_string" }
%"class.llvm::LLLexer" = type <{ ptr, %"class.llvm::StringRef", ptr, ptr, ptr, ptr, i32, [4 x i8], %"class.std::__cxx11::basic_string", i32, [4 x i8], ptr, %"class.llvm::APFloat", %"class.llvm::APSInt", i8, [7 x i8] }>
%"class.llvm::APFloat" = type { [8 x i8], %"union.llvm::APFloat::Storage" }
%"union.llvm::APFloat::Storage" = type { %"class.llvm::detail::DoubleAPFloat", [8 x i8] }
%"class.llvm::detail::DoubleAPFloat" = type { ptr, %"class.std::unique_ptr" }
%"class.std::unique_ptr" = type { %"struct.std::__uniq_ptr_data" }
%"struct.std::__uniq_ptr_data" = type { %"class.std::__uniq_ptr_impl" }
%"class.std::__uniq_ptr_impl" = type { %"class.std::tuple" }
%"class.std::tuple" = type { %"struct.std::_Tuple_impl" }
%"struct.std::_Tuple_impl" = type { %"struct.std::_Head_base.1" }
%"struct.std::_Head_base.1" = type { ptr }
%"class.llvm::APSInt" = type { %"class.llvm::APInt.base", i8, [3 x i8] }
%"class.llvm::APInt.base" = type <{ %union.anon.2, i32 }>
%union.anon.2 = type { i64 }
%"class.llvm::SmallVector.3" = type { %"class.llvm::SmallVectorImpl.4", %"struct.llvm::SmallVectorStorage.7" }
%"class.llvm::SmallVectorImpl.4" = type { %"class.llvm::SmallVectorTemplateBase.5" }
%"class.llvm::SmallVectorTemplateBase.5" = type { %"class.llvm::SmallVectorTemplateCommon.6" }
%"class.llvm::SmallVectorTemplateCommon.6" = type { %"class.llvm::SmallVectorBase" }
%"struct.llvm::SmallVectorStorage.7" = type { [512 x i8] }
%"class.llvm::DenseMap" = type <{ ptr, i32, i32, i32, [4 x i8] }>
%"class.llvm::StringMap" = type { %"class.llvm::StringMapImpl" }
%"class.llvm::StringMapImpl" = type { ptr, i32, i32, i32, i32 }
%"class.std::map" = type { %"class.std::_Rb_tree" }
%"class.std::_Rb_tree" = type { %"struct.std::_Rb_tree<unsigned int, std::pair<const unsigned int, std::pair<llvm::Type *, llvm::SMLoc>>, std::_Select1st<std::pair<const unsigned int, std::pair<llvm::Type *, llvm::SMLoc>>>, std::less<unsigned int>>::_Rb_tree_impl" }
%"struct.std::_Rb_tree<unsigned int, std::pair<const unsigned int, std::pair<llvm::Type *, llvm::SMLoc>>, std::_Select1st<std::pair<const unsigned int, std::pair<llvm::Type *, llvm::SMLoc>>>, std::less<unsigned int>>::_Rb_tree_impl" = type { [8 x i8], %"struct.std::_Rb_tree_header" }
%"struct.std::_Rb_tree_header" = type { %"struct.std::_Rb_tree_node_base", i64 }
%"struct.std::_Rb_tree_node_base" = type { i32, ptr, ptr, ptr }
%"class.std::map.11" = type { %"class.std::_Rb_tree.12" }
%"class.std::_Rb_tree.12" = type { %"struct.std::_Rb_tree<unsigned int, std::pair<const unsigned int, llvm::TypedTrackingMDRef<llvm::MDNode>>, std::_Select1st<std::pair<const unsigned int, llvm::TypedTrackingMDRef<llvm::MDNode>>>, std::less<unsigned int>>::_Rb_tree_impl" }
%"struct.std::_Rb_tree<unsigned int, std::pair<const unsigned int, llvm::TypedTrackingMDRef<llvm::MDNode>>, std::_Select1st<std::pair<const unsigned int, llvm::TypedTrackingMDRef<llvm::MDNode>>>, std::less<unsigned int>>::_Rb_tree_impl" = type { [8 x i8], %"struct.std::_Rb_tree_header" }
%"class.std::map.16" = type { %"class.std::_Rb_tree.17" }
%"class.std::_Rb_tree.17" = type { %"struct.std::_Rb_tree<unsigned int, std::pair<const unsigned int, std::pair<std::unique_ptr<llvm::MDTuple, llvm::TempMDNodeDeleter>, llvm::SMLoc>>, std::_Select1st<std::pair<const unsigned int, std::pair<std::unique_ptr<llvm::MDTuple, llvm::TempMDNodeDeleter>, llvm::SMLoc>>>, std::less<unsigned int>>::_Rb_tree_impl" }
%"struct.std::_Rb_tree<unsigned int, std::pair<const unsigned int, std::pair<std::unique_ptr<llvm::MDTuple, llvm::TempMDNodeDeleter>, llvm::SMLoc>>, std::_Select1st<std::pair<const unsigned int, std::pair<std::unique_ptr<llvm::MDTuple, llvm::TempMDNodeDeleter>, llvm::SMLoc>>>, std::less<unsigned int>>::_Rb_tree_impl" = type { [8 x i8], %"struct.std::_Rb_tree_header" }
%"class.std::map.21" = type { %"class.std::_Rb_tree.22" }
%"class.std::_Rb_tree.22" = type { %"struct.std::_Rb_tree<std::__cxx11::basic_string<char>, std::pair<const std::__cxx11::basic_string<char>, std::pair<llvm::GlobalValue *, llvm::SMLoc>>, std::_Select1st<std::pair<const std::__cxx11::basic_string<char>, std::pair<llvm::GlobalValue *, llvm::SMLoc>>>, std::less<std::__cxx11::basic_string<char>>>::_Rb_tree_impl" }
%"struct.std::_Rb_tree<std::__cxx11::basic_string<char>, std::pair<const std::__cxx11::basic_string<char>, std::pair<llvm::GlobalValue *, llvm::SMLoc>>, std::_Select1st<std::pair<const std::__cxx11::basic_string<char>, std::pair<llvm::GlobalValue *, llvm::SMLoc>>>, std::less<std::__cxx11::basic_string<char>>>::_Rb_tree_impl" = type { [8 x i8], %"struct.std::_Rb_tree_header" }
%"class.std::map.27" = type { %"class.std::_Rb_tree.28" }
%"class.std::_Rb_tree.28" = type { %"struct.std::_Rb_tree<unsigned int, std::pair<const unsigned int, std::pair<llvm::GlobalValue *, llvm::SMLoc>>, std::_Select1st<std::pair<const unsigned int, std::pair<llvm::GlobalValue *, llvm::SMLoc>>>, std::less<unsigned int>>::_Rb_tree_impl" }
%"struct.std::_Rb_tree<unsigned int, std::pair<const unsigned int, std::pair<llvm::GlobalValue *, llvm::SMLoc>>, std::_Select1st<std::pair<const unsigned int, std::pair<llvm::GlobalValue *, llvm::SMLoc>>>, std::less<unsigned int>>::_Rb_tree_impl" = type { [8 x i8], %"struct.std::_Rb_tree_header" }
%"class.llvm::NumberedValues" = type { %"class.llvm::DenseMap.32", i32, [4 x i8] }
%"class.llvm::DenseMap.32" = type <{ ptr, i32, i32, i32, [4 x i8] }>
%"class.std::map.35" = type { %"class.std::_Rb_tree.36" }
%"class.std::_Rb_tree.36" = type { %"struct.std::_Rb_tree<std::__cxx11::basic_string<char>, std::pair<const std::__cxx11::basic_string<char>, llvm::SMLoc>, std::_Select1st<std::pair<const std::__cxx11::basic_string<char>, llvm::SMLoc>>, std::less<std::__cxx11::basic_string<char>>>::_Rb_tree_impl" }
%"struct.std::_Rb_tree<std::__cxx11::basic_string<char>, std::pair<const std::__cxx11::basic_string<char>, llvm::SMLoc>, std::_Select1st<std::pair<const std::__cxx11::basic_string<char>, llvm::SMLoc>>, std::less<std::__cxx11::basic_string<char>>>::_Rb_tree_impl" = type { [8 x i8], %"struct.std::_Rb_tree_header" }
%"class.std::map.40" = type { %"class.std::_Rb_tree.41" }
%"class.std::_Rb_tree.41" = type { %"struct.std::_Rb_tree<llvm::ValID, std::pair<const llvm::ValID, std::map<llvm::ValID, llvm::GlobalValue *>>, std::_Select1st<std::pair<const llvm::ValID, std::map<llvm::ValID, llvm::GlobalValue *>>>, std::less<llvm::ValID>>::_Rb_tree_impl" }
%"struct.std::_Rb_tree<llvm::ValID, std::pair<const llvm::ValID, std::map<llvm::ValID, llvm::GlobalValue *>>, std::_Select1st<std::pair<const llvm::ValID, std::map<llvm::ValID, llvm::GlobalValue *>>>, std::less<llvm::ValID>>::_Rb_tree_impl" = type { [8 x i8], %"struct.std::_Rb_tree_header" }
%"class.std::map.46" = type { %"class.std::_Rb_tree.47" }
%"class.std::_Rb_tree.47" = type { %"struct.std::_Rb_tree<llvm::ValID, std::pair<const llvm::ValID, llvm::GlobalValue *>, std::_Select1st<std::pair<const llvm::ValID, llvm::GlobalValue *>>, std::less<llvm::ValID>>::_Rb_tree_impl" }
%"struct.std::_Rb_tree<llvm::ValID, std::pair<const llvm::ValID, llvm::GlobalValue *>, std::_Select1st<std::pair<const llvm::ValID, llvm::GlobalValue *>>, std::less<llvm::ValID>>::_Rb_tree_impl" = type { [8 x i8], %"struct.std::_Rb_tree_header" }
%"class.std::map.51" = type { %"class.std::_Rb_tree.52" }
%"class.std::_Rb_tree.52" = type { %"struct.std::_Rb_tree<llvm::Value *, std::pair<llvm::Value *const, std::vector<unsigned int>>, std::_Select1st<std::pair<llvm::Value *const, std::vector<unsigned int>>>, std::less<llvm::Value *>>::_Rb_tree_impl" }
%"struct.std::_Rb_tree<llvm::Value *, std::pair<llvm::Value *const, std::vector<unsigned int>>, std::_Select1st<std::pair<llvm::Value *const, std::vector<unsigned int>>>, std::less<llvm::Value *>>::_Rb_tree_impl" = type { [8 x i8], %"struct.std::_Rb_tree_header" }
%"class.std::map.57" = type { %"class.std::_Rb_tree.58" }
%"class.std::_Rb_tree.58" = type { %"struct.std::_Rb_tree<unsigned int, std::pair<const unsigned int, llvm::AttrBuilder>, std::_Select1st<std::pair<const unsigned int, llvm::AttrBuilder>>, std::less<unsigned int>>::_Rb_tree_impl" }
%"struct.std::_Rb_tree<unsigned int, std::pair<const unsigned int, llvm::AttrBuilder>, std::_Select1st<std::pair<const unsigned int, llvm::AttrBuilder>>, std::less<unsigned int>>::_Rb_tree_impl" = type { [8 x i8], %"struct.std::_Rb_tree_header" }
%"class.std::map.62" = type { %"class.std::_Rb_tree.63" }
%"class.std::_Rb_tree.63" = type { %"struct.std::_Rb_tree<unsigned int, std::pair<const unsigned int, std::vector<std::pair<llvm::ValueInfo *, llvm::SMLoc>>>, std::_Select1st<std::pair<const unsigned int, std::vector<std::pair<llvm::ValueInfo *, llvm::SMLoc>>>>, std::less<unsigned int>>::_Rb_tree_impl" }
%"struct.std::_Rb_tree<unsigned int, std::pair<const unsigned int, std::vector<std::pair<llvm::ValueInfo *, llvm::SMLoc>>>, std::_Select1st<std::pair<const unsigned int, std::vector<std::pair<llvm::ValueInfo *, llvm::SMLoc>>>>, std::less<unsigned int>>::_Rb_tree_impl" = type { [8 x i8], %"struct.std::_Rb_tree_header" }
%"class.std::map.67" = type { %"class.std::_Rb_tree.68" }
%"class.std::_Rb_tree.68" = type { %"struct.std::_Rb_tree<unsigned int, std::pair<const unsigned int, std::vector<std::pair<llvm::AliasSummary *, llvm::SMLoc>>>, std::_Select1st<std::pair<const unsigned int, std::vector<std::pair<llvm::AliasSummary *, llvm::SMLoc>>>>, std::less<unsigned int>>::_Rb_tree_impl" }
%"struct.std::_Rb_tree<unsigned int, std::pair<const unsigned int, std::vector<std::pair<llvm::AliasSummary *, llvm::SMLoc>>>, std::_Select1st<std::pair<const unsigned int, std::vector<std::pair<llvm::AliasSummary *, llvm::SMLoc>>>>, std::less<unsigned int>>::_Rb_tree_impl" = type { [8 x i8], %"struct.std::_Rb_tree_header" }
%"class.std::vector" = type { %"struct.std::_Vector_base" }
%"struct.std::_Vector_base" = type { %"struct.std::_Vector_base<llvm::ValueInfo, std::allocator<llvm::ValueInfo>>::_Vector_impl" }
%"struct.std::_Vector_base<llvm::ValueInfo, std::allocator<llvm::ValueInfo>>::_Vector_impl" = type { %"struct.std::_Vector_base<llvm::ValueInfo, std::allocator<llvm::ValueInfo>>::_Vector_impl_data" }
%"struct.std::_Vector_base<llvm::ValueInfo, std::allocator<llvm::ValueInfo>>::_Vector_impl_data" = type { ptr, ptr, ptr }
%"class.std::map.75" = type { %"class.std::_Rb_tree.76" }
%"class.std::_Rb_tree.76" = type { %"struct.std::_Rb_tree<unsigned int, std::pair<const unsigned int, std::vector<std::pair<unsigned long *, llvm::SMLoc>>>, std::_Select1st<std::pair<const unsigned int, std::vector<std::pair<unsigned long *, llvm::SMLoc>>>>, std::less<unsigned int>>::_Rb_tree_impl" }
%"struct.std::_Rb_tree<unsigned int, std::pair<const unsigned int, std::vector<std::pair<unsigned long *, llvm::SMLoc>>>, std::_Select1st<std::pair<const unsigned int, std::vector<std::pair<unsigned long *, llvm::SMLoc>>>>, std::less<unsigned int>>::_Rb_tree_impl" = type { [8 x i8], %"struct.std::_Rb_tree_header" }
%"class.std::map.80" = type { %"class.std::_Rb_tree.81" }
%"class.std::_Rb_tree.81" = type { %"struct.std::_Rb_tree<unsigned int, std::pair<const unsigned int, llvm::StringRef>, std::_Select1st<std::pair<const unsigned int, llvm::StringRef>>, std::less<unsigned int>>::_Rb_tree_impl" }
%"struct.std::_Rb_tree<unsigned int, std::pair<const unsigned int, llvm::StringRef>, std::_Select1st<std::pair<const unsigned int, llvm::StringRef>>, std::less<unsigned int>>::_Rb_tree_impl" = type { [8 x i8], %"struct.std::_Rb_tree_header" }
%"class.std::__cxx11::basic_string" = type { %"struct.std::__cxx11::basic_string<char>::_Alloc_hider", i64, %union.anon }
%"struct.std::__cxx11::basic_string<char>::_Alloc_hider" = type { ptr }
%union.anon = type { i64, [8 x i8] }

@.str.121 = private unnamed_addr constant [40 x i8] c"Expected ordering on atomic instruction\00", align 1

; Function Attrs: mustprogress nounwind uwtable
define linkonce_odr hidden void @_ZN4llvm5SMLocC2Ev(ptr noundef nonnull align 8 dereferenceable(8) %0) unnamed_addr #1 comdat align 2 {
  %2 = alloca ptr, align 8
  store ptr %0, ptr %2, align 8
  %3 = load ptr, ptr %2, align 8
  %4 = getelementptr inbounds nuw %"class.llvm::SMLoc", ptr %3, i32 0, i32 0
  store ptr null, ptr %4, align 8
  ret void
}

; Function Attrs: mustprogress nounwind uwtable
define linkonce_odr hidden ptr @_ZN4llvm5SMLoc14getFromPointerEPKc(ptr noundef %0) #1 comdat align 2 {
  %2 = alloca %"class.llvm::SMLoc", align 8
  %3 = alloca ptr, align 8
  store ptr %0, ptr %3, align 8
  call void @_ZN4llvm5SMLocC2Ev(ptr noundef nonnull align 8 dereferenceable(8) %2) #2
  %4 = load ptr, ptr %3, align 8
  %5 = getelementptr inbounds nuw %"class.llvm::SMLoc", ptr %2, i32 0, i32 0
  store ptr %4, ptr %5, align 8
  %6 = getelementptr inbounds nuw %"class.llvm::SMLoc", ptr %2, i32 0, i32 0
  %7 = load ptr, ptr %6, align 8
  ret ptr %7
}

; Function Attrs: mustprogress nounwind uwtable
define linkonce_odr hidden noundef zeroext i1 @_ZNK4llvm8LLParser5errorENS_5SMLocERKNS_5TwineE(ptr noundef nonnull align 8 dereferenceable(1768) %0, ptr %1, ptr noundef nonnull align 8 dereferenceable(34) %2) #1 comdat align 2 {
  %4 = alloca %"class.llvm::SMLoc", align 8
  %5 = alloca ptr, align 8
  %6 = alloca ptr, align 8
  %7 = alloca %"class.llvm::SMLoc", align 8
  %8 = getelementptr inbounds nuw %"class.llvm::SMLoc", ptr %4, i32 0, i32 0
  store ptr %1, ptr %8, align 8
  store ptr %0, ptr %5, align 8
  store ptr %2, ptr %6, align 8
  %9 = load ptr, ptr %5, align 8
  %10 = getelementptr inbounds nuw %"class.llvm::LLParser", ptr %9, i32 0, i32 2
  call void @llvm.memcpy.p0.p0.i64(ptr align 8 %7, ptr align 8 %4, i64 8, i1 false)
  %11 = load ptr, ptr %6, align 8
  %12 = getelementptr inbounds nuw %"class.llvm::SMLoc", ptr %7, i32 0, i32 0
  %13 = load ptr, ptr %12, align 8
  %14 = call noundef zeroext i1 @_ZNK4llvm7LLLexer5ErrorENS_5SMLocERKNS_5TwineE(ptr noundef nonnull align 8 dereferenceable(161) %10, ptr %13, ptr noundef nonnull align 8 dereferenceable(34) %11)
  ret i1 %14
}

; Function Attrs: mustprogress nounwind uwtable
define linkonce_odr hidden ptr @_ZNK4llvm7LLLexer6getLocEv(ptr noundef nonnull align 8 dereferenceable(161) %0) #1 comdat align 2 {
  %2 = alloca %"class.llvm::SMLoc", align 8
  %3 = alloca ptr, align 8
  store ptr %0, ptr %3, align 8
  %4 = load ptr, ptr %3, align 8
  %5 = getelementptr inbounds nuw %"class.llvm::LLLexer", ptr %4, i32 0, i32 5
  %6 = load ptr, ptr %5, align 8
  %7 = call ptr @_ZN4llvm5SMLoc14getFromPointerEPKc(ptr noundef %6)
  %8 = getelementptr inbounds nuw %"class.llvm::SMLoc", ptr %2, i32 0, i32 0
  store ptr %7, ptr %8, align 8
  %9 = getelementptr inbounds nuw %"class.llvm::SMLoc", ptr %2, i32 0, i32 0
  %10 = load ptr, ptr %9, align 8
  ret ptr %10
}

; Function Attrs: mustprogress nounwind uwtable
define linkonce_odr hidden noundef i32 @_ZN4llvm7LLLexer3LexEv(ptr noundef nonnull align 8 dereferenceable(161) %0) #1 comdat align 2 {
  %2 = alloca ptr, align 8
  store ptr %0, ptr %2, align 8
  %3 = load ptr, ptr %2, align 8
  %4 = call noundef i32 @_ZN4llvm7LLLexer8LexTokenEv(ptr noundef nonnull align 8 dereferenceable(161) %3)
  %5 = getelementptr inbounds nuw %"class.llvm::LLLexer", ptr %3, i32 0, i32 6
  store i32 %4, ptr %5, align 8
  ret i32 %4
}

; Function Attrs: mustprogress nounwind uwtable
define linkonce_odr hidden noundef zeroext i1 @_ZNK4llvm8LLParser8tokErrorERKNS_5TwineE(ptr noundef nonnull align 8 dereferenceable(1768) %0, ptr noundef nonnull align 8 dereferenceable(34) %1) #1 comdat align 2 {
  %3 = alloca ptr, align 8
  %4 = alloca ptr, align 8
  %5 = alloca %"class.llvm::SMLoc", align 8
  store ptr %0, ptr %3, align 8
  store ptr %1, ptr %4, align 8
  %6 = load ptr, ptr %3, align 8
  %7 = getelementptr inbounds nuw %"class.llvm::LLParser", ptr %6, i32 0, i32 2
  %8 = call ptr @_ZNK4llvm7LLLexer6getLocEv(ptr noundef nonnull align 8 dereferenceable(161) %7)
  %9 = getelementptr inbounds nuw %"class.llvm::SMLoc", ptr %5, i32 0, i32 0
  store ptr %8, ptr %9, align 8
  %10 = load ptr, ptr %4, align 8
  %11 = getelementptr inbounds nuw %"class.llvm::SMLoc", ptr %5, i32 0, i32 0
  %12 = load ptr, ptr %11, align 8
  %13 = call noundef zeroext i1 @_ZNK4llvm8LLParser5errorENS_5SMLocERKNS_5TwineE(ptr noundef nonnull align 8 dereferenceable(1768) %6, ptr %12, ptr noundef nonnull align 8 dereferenceable(34) %10)
  ret i1 %13
}

; Function Attrs: mustprogress nounwind uwtable
define linkonce_odr hidden void @_ZN4llvm5TwineC2EPKc(ptr noundef nonnull align 8 dereferenceable(34) %0, ptr noundef %1) unnamed_addr #1 comdat align 2 {
  %3 = alloca ptr, align 8
  %4 = alloca ptr, align 8
  store ptr %0, ptr %3, align 8
  store ptr %1, ptr %4, align 8
  %5 = load ptr, ptr %3, align 8
  %6 = getelementptr inbounds nuw %"class.llvm::Twine", ptr %5, i32 0, i32 2
  store i8 1, ptr %6, align 8
  %7 = getelementptr inbounds nuw %"class.llvm::Twine", ptr %5, i32 0, i32 3
  store i8 1, ptr %7, align 1
  %8 = load ptr, ptr %4, align 8
  %9 = getelementptr inbounds i8, ptr %8, i64 0
  %10 = load i8, ptr %9, align 1
  %11 = sext i8 %10 to i32
  %12 = icmp ne i32 %11, 0
  br i1 %12, label %13, label %17

13:                                               ; preds = %2
  %14 = load ptr, ptr %4, align 8
  %15 = getelementptr inbounds nuw %"class.llvm::Twine", ptr %5, i32 0, i32 0
  store ptr %14, ptr %15, align 8
  %16 = getelementptr inbounds nuw %"class.llvm::Twine", ptr %5, i32 0, i32 2
  store i8 3, ptr %16, align 8
  br label %19

17:                                               ; preds = %2
  %18 = getelementptr inbounds nuw %"class.llvm::Twine", ptr %5, i32 0, i32 2
  store i8 1, ptr %18, align 8
  br label %19

19:                                               ; preds = %17, %13
  ret void
}

; Function Attrs: mustprogress nounwind uwtable
define linkonce_odr hidden noundef i32 @_ZNK4llvm7LLLexer7getKindEv(ptr noundef nonnull align 8 dereferenceable(161) %0) #1 comdat align 2 {
  %2 = alloca ptr, align 8
  store ptr %0, ptr %2, align 8
  %3 = load ptr, ptr %2, align 8
  %4 = getelementptr inbounds nuw %"class.llvm::LLLexer", ptr %3, i32 0, i32 6
  %5 = load i32, ptr %4, align 8
  ret i32 %5
}

; Function Attrs: mustprogress nounwind uwtable
define dso_local noundef zeroext i1 @_ZN4llvm8LLParser13parseOrderingERNS_14AtomicOrderingE(ptr noundef nonnull align 8 dereferenceable(1768) %0, ptr noundef nonnull align 4 dereferenceable(4) %1) #1 align 2 {
  %3 = alloca i1, align 1
  %4 = alloca ptr, align 8
  %5 = alloca ptr, align 8
  %6 = alloca %"class.llvm::Twine", align 8
  store ptr %0, ptr %4, align 8
  store ptr %1, ptr %5, align 8
  %7 = load ptr, ptr %4, align 8
  %8 = getelementptr inbounds nuw %"class.llvm::LLParser", ptr %7, i32 0, i32 2
  %9 = call noundef i32 @_ZNK4llvm7LLLexer7getKindEv(ptr noundef nonnull align 8 dereferenceable(161) %8)
  switch i32 %9, label %10 [
    i32 70, label %12
    i32 71, label %14
    i32 72, label %16
    i32 73, label %18
    i32 74, label %20
    i32 75, label %22
  ]

10:                                               ; preds = %2
  call void @_ZN4llvm5TwineC2EPKc(ptr noundef nonnull align 8 dereferenceable(34) %6, ptr noundef @.str.121)
  %11 = call noundef zeroext i1 @_ZNK4llvm8LLParser8tokErrorERKNS_5TwineE(ptr noundef nonnull align 8 dereferenceable(1768) %7, ptr noundef nonnull align 8 dereferenceable(34) %6)
  store i1 %11, ptr %3, align 1
  br label %27

12:                                               ; preds = %2
  %13 = load ptr, ptr %5, align 8
  store i32 1, ptr %13, align 4
  br label %24

14:                                               ; preds = %2
  %15 = load ptr, ptr %5, align 8
  store i32 2, ptr %15, align 4
  br label %24

16:                                               ; preds = %2
  %17 = load ptr, ptr %5, align 8
  store i32 4, ptr %17, align 4
  br label %24

18:                                               ; preds = %2
  %19 = load ptr, ptr %5, align 8
  store i32 5, ptr %19, align 4
  br label %24

20:                                               ; preds = %2
  %21 = load ptr, ptr %5, align 8
  store i32 6, ptr %21, align 4
  br label %24

22:                                               ; preds = %2
  %23 = load ptr, ptr %5, align 8
  store i32 7, ptr %23, align 4
  br label %24

24:                                               ; preds = %22, %20, %18, %16, %14, %12
  %25 = getelementptr inbounds nuw %"class.llvm::LLParser", ptr %7, i32 0, i32 2
  %26 = call noundef i32 @_ZN4llvm7LLLexer3LexEv(ptr noundef nonnull align 8 dereferenceable(161) %25)
  store i1 false, ptr %3, align 1
  br label %27

27:                                               ; preds = %24, %10
  %28 = load i1, ptr %3, align 1
  ret i1 %28
}