; Function Attrs: mustprogress nounwind uwtable
define dso_local noundef zeroext i1 @_ZN4llvm8LLParser13parseOrderingERNS_14AtomicOrderingE(ptr noundef nonnull align 8 dereferenceable(1768) %0, ptr nocapture noundef nonnull writeonly align 4 dereferenceable(4) %1) local_unnamed_addr #0 align 2 {
  %3 = alloca %"class.llvm::Twine", align 8
  %4 = getelementptr inbounds nuw i8, ptr %0, i64 176
  %5 = getelementptr inbounds i8, ptr %0, i64 232
  %6 = load i32, ptr %5, align 8
  %switch.tableidx = add i32 %6, -70
  %7 = icmp ult i32 %switch.tableidx, 6
  br i1 %7, label %switch.lookup, label %8

8:                                                ; preds = %2
  %9 = getelementptr inbounds nuw i8, ptr %3, i64 32
  %10 = getelementptr inbounds nuw i8, ptr %3, i64 33
  store i8 1, ptr %10, align 1
  store ptr @.str.121, ptr %3, align 8
  store i8 3, ptr %9, align 8
  %11 = getelementptr inbounds i8, ptr %0, i64 224
  %12 = load ptr, ptr %11, align 8
  %13 = call noundef zeroext i1 @_ZNK4llvm7LLLexer5ErrorENS_5SMLocERKNS_5TwineE(ptr noundef nonnull align 8 dereferenceable(161) %4, ptr %12, ptr noundef nonnull align 8 dereferenceable(34) %3) #25
  br label %16

switch.lookup:                                    ; preds = %2
  %14 = zext nneg i32 %switch.tableidx to i64
  %switch.gep = getelementptr inbounds [6 x i32], ptr @switch.table._ZN4llvm8LLParser14parseAtomicRMWERPNS_11InstructionERNS0_16PerFunctionStateE, i64 0, i64 %14
  %switch.load = load i32, ptr %switch.gep, align 4
  store i32 %switch.load, ptr %1, align 4
  %15 = tail call noundef i32 @_ZN4llvm7LLLexer8LexTokenEv(ptr noundef nonnull align 8 dereferenceable(161) %4) #25
  store i32 %15, ptr %5, align 8
  br label %16

16:                                               ; preds = %switch.lookup, %8
  %.0 = phi i1 [ %13, %8 ], [ false, %switch.lookup ]
  ret i1 %.0
}